(lp0
(S'0'
p1
S'20'
p2
S'7'
p3
tp4
a(g1
S'1'
p5
S'14'
p6
tp7
a(g1
g5
S'10'
p8
tp9
a(g1
S'9'
p10
g3
tp11
a(g1
g5
S'8'
p12
tp13
a(g5
S'38'
p14
S'20'
p15
tp16
a(g1
g5
g3
tp17
a(S'2'
p18
S'6'
p19
g19
tp20
a(g1
S'5'
p21
S'18'
p22
tp23
a(g1
g18
S'13'
p24
tp25
a(g5
g12
S'19'
p26
tp27
a(g1
S'3'
p28
S'11'
p29
tp30
a(g5
g28
S'33'
p31
tp32
a(g1
g3
g28
tp33
a(g1
g21
S'21'
p34
tp35
a(g1
S'23'
p36
S'10'
p37
tp38
a(g5
g5
g12
tp39
a(g5
g28
S'11'
p40
tp41
a(g1
g19
S'4'
p42
tp43
a(g18
S'16'
p44
g5
tp45
a(g1
g18
g10
tp46
a(g1
g42
g5
tp47
a(g1
g18
S'25'
p48
tp49
a(g1
S'10'
p50
S'16'
p51
tp52
a(g1
S'19'
p53
S'12'
p54
tp55
a(g5
S'23'
p56
g21
tp57
a(g1
g5
S'15'
p58
tp59
a(g5
S'12'
p60
g18
tp61
a(g1
g12
g18
tp62
a(g5
g18
S'17'
p63
tp64
a(g5
g19
S'23'
p65
tp66
a(g1
g28
g19
tp67
a(g1
g18
g18
tp68
a(g1
g18
S'15'
p69
tp70
a(g1
S'10'
p71
g42
tp72
a(g1
S'25'
p73
g18
tp74
a(g5
g5
S'19'
p75
tp76
a(g5
g10
S'20'
p77
tp78
a(g1
g5
g42
tp79
a(g1
g18
g42
tp80
a(g1
S'13'
p81
g21
tp82
a(g19
S'31'
p83
g1
tp84
a(g1
g28
g18
tp85
a(g5
S'15'
p86
S'19'
p87
tp88
a(g1
g5
g12
tp89
a(g1
g1
S'10'
p90
tp91
a(g1
g1
g42
tp92
a(g1
g3
g5
tp93
a(g1
g18
S'11'
p94
tp95
a(g1
g21
g12
tp96
a(g1
g3
S'36'
p97
tp98
a(g1
g1
S'12'
p99
tp100
a(g1
g19
g19
tp101
a(g5
g42
g10
tp102
a(g5
g1
S'22'
p103
tp104
a(g1
S'31'
p105
S'26'
p106
tp107
a(g5
g21
S'14'
p108
tp109
a(g42
S'55'
p110
g5
tp111
a(g1
g1
g28
tp112
a(g1
g5
g21
tp113
a(g1
S'21'
p114
g12
tp115
a(g5
g1
S'17'
p116
tp117
a(g1
S'15'
p118
S'10'
p119
tp120
a(g5
S'22'
p121
S'46'
p122
tp123
a(g1
g42
S'31'
p124
tp125
a(g1
S'31'
p126
S'15'
p127
tp128
a(g1
g1
g28
tp129
a(g1
g5
g19
tp130
a(g1
S'14'
p131
S'18'
p132
tp133
a(g1
g10
g28
tp134
a(g5
g1
g19
tp135
a(g5
g12
g28
tp136
a(g5
g21
g12
tp137
a(g5
g12
g3
tp138
a(g18
g28
S'23'
p139
tp140
a(g5
S'11'
p141
S'14'
p142
tp143
a(g28
g42
S'19'
p144
tp145
a(g1
g5
g5
tp146
a(g1
S'32'
p147
S'10'
p148
tp149
a(g1
g18
g12
tp150
a(g5
g42
g21
tp151
a(g1
S'15'
p152
S'15'
p153
tp154
a(g1
S'11'
p155
g12
tp156
a(g1
S'17'
p157
S'18'
p158
tp159
a(g1
g42
S'21'
p160
tp161
a(g5
g28
g18
tp162
a(g1
g28
S'27'
p163
tp164
a(g5
g3
S'14'
p165
tp166
a(g1
g5
S'16'
p167
tp168
a(g1
g28
g21
tp169
a(g1
g1
S'23'
p170
tp171
a(g1
g5
g19
tp172
a(g1
g1
S'15'
p173
tp174
a(g1
g5
g12
tp175
a(g18
g18
S'22'
p176
tp177
a(g5
S'16'
p178
S'13'
p179
tp180
a(g5
g3
S'25'
p181
tp182
a(g1
g1
S'34'
p183
tp184
a(g1
g18
g5
tp185
a(g1
g21
S'19'
p186
tp187
a(g5
g5
S'23'
p188
tp189
a(g1
S'12'
p190
g42
tp191
a(g5
g1
S'25'
p192
tp193
a(g1
S'62'
p194
g28
tp195
a(g5
S'16'
p196
g28
tp197
a(g5
g5
S'17'
p198
tp199
a(g1
g5
g21
tp200
a(g5
S'42'
p201
g42
tp202
a(g1
S'17'
p203
S'11'
p204
tp205
a(g5
g5
S'23'
p206
tp207
a(g1
g18
S'29'
p208
tp209
a(g5
S'32'
p210
g1
tp211
a(g1
S'68'
p212
g19
tp213
a(g1
g1
g5
tp214
a(g5
g42
S'25'
p215
tp216
a(g1
g1
g3
tp217
a(g1
g42
S'18'
p218
tp219
a(g1
g5
S'13'
p220
tp221
a(g1
g28
g42
tp222
a(g1
g5
g10
tp223
a(g18
g42
S'13'
p224
tp225
a(g5
S'22'
p226
g3
tp227
a(g1
g1
S'12'
p228
tp229
a(g1
g1
S'10'
p230
tp231
a(g1
g12
S'12'
p232
tp233
a(g18
S'31'
p234
S'11'
p235
tp236
a(g1
g5
S'10'
p237
tp238
a(g5
g3
g3
tp239
a(g5
g42
S'23'
p240
tp241
a(g1
g1
S'11'
p242
tp243
a(g18
S'51'
p244
g5
tp245
a(g1
g28
g3
tp246
a(g18
g5
S'24'
p247
tp248
a(g1
g42
g5
tp249
a(g18
S'19'
p250
S'16'
p251
tp252
a(g5
S'25'
p253
g3
tp254
a(g18
g5
S'18'
p255
tp256
a(g5
g1
S'13'
p257
tp258
a(g5
g42
S'15'
p259
tp260
a(g1
g1
g5
tp261
a(g1
g18
g21
tp262
a(g1
g5
S'24'
p263
tp264
a(g1
g28
S'29'
p265
tp266
a(g1
S'70'
p267
g18
tp268
a(g42
g42
g10
tp269
a(g5
g5
S'36'
p270
tp271
a(g1
S'11'
p272
S'10'
p273
tp274
a(g1
g10
g5
tp275
a(g1
g18
g1
tp276
a(g1
S'11'
p277
g21
tp278
a(g1
g1
S'14'
p279
tp280
a(g19
S'50'
p281
g1
tp282
a(g1
g5
S'23'
p283
tp284
a(g1
S'12'
p285
g21
tp286
a(g5
g5
g12
tp287
a(g5
g18
g42
tp288
a(g5
g12
S'24'
p289
tp290
a(g1
g18
g19
tp291
a(g1
g18
S'11'
p292
tp293
a(g5
S'10'
p294
S'14'
p295
tp296
a(g5
S'11'
p297
g19
tp298
a(g1
g19
S'20'
p299
tp300
a(g28
g1
S'25'
p301
tp302
a(g1
S'25'
p303
S'21'
p304
tp305
a(g1
S'41'
p306
g5
tp307
a(g28
S'10'
p308
g21
tp309
a(g5
S'42'
p310
S'17'
p311
tp312
a(g1
S'18'
p313
S'20'
p314
tp315
a(g1
S'25'
p316
S'39'
p317
tp318
a(g5
g5
g12
tp319
a(g18
S'33'
p320
g28
tp321
a(g5
g28
S'27'
p322
tp323
a(g5
g21
S'21'
p324
tp325
a(g5
g1
g5
tp326
a(g1
g1
g12
tp327
a(g5
g3
S'25'
p328
tp329
a(g1
g1
g3
tp330
a.